target datalayout = "e-m:e-p270:32:32-p271:32:32-p272:64:64-i64:64-i128:128-f80:128-n8:16:32:64-S128"
target triple = "x86_64-pc-linux-gnu"

%struct.multi_core_data = type { i16, i16, i16, i16, i16, i16, i16, i16, i16 }

@.str.2 = private unnamed_addr constant [22 x i8] c"slurm_protocol_pack.c\00", align 1
@__func__.unpack_multi_core_data = private unnamed_addr constant [23 x i8] c"unpack_multi_core_data\00", align 1

; Function Attrs: nounwind uwtable
define dso_local i32 @unpack_multi_core_data(ptr noundef %0, ptr noundef %1, i16 noundef zeroext %2) #0 {
  %4 = alloca i32, align 4
  %5 = alloca ptr, align 8
  %6 = alloca ptr, align 8
  %7 = alloca i16, align 2
  %8 = alloca i8, align 1
  %9 = alloca ptr, align 8
  %10 = alloca i32, align 4
  store ptr %0, ptr %5, align 8
  store ptr %1, ptr %6, align 8
  store i16 %2, ptr %7, align 2
  call void @llvm.lifetime.start.p0(i64 1, ptr %8) #6
  call void @llvm.lifetime.start.p0(i64 8, ptr %9) #6
  store ptr null, ptr %9, align 8
  %11 = load ptr, ptr %5, align 8
  store ptr null, ptr %11, align 8
  br label %12

12:                                               ; preds = %3
  %13 = load ptr, ptr %6, align 8
  %14 = call i32 @unpack8(ptr noundef %8, ptr noundef %13)
  %15 = icmp ne i32 %14, 0
  br i1 %15, label %16, label %17

16:                                               ; preds = %12
  br label %128

17:                                               ; preds = %12
  br label %18

18:                                               ; preds = %17
  br label %19

19:                                               ; preds = %18
  %20 = load i8, ptr %8, align 1
  %21 = zext i8 %20 to i32
  %22 = icmp eq i32 %21, 0
  br i1 %22, label %23, label %24

23:                                               ; preds = %19
  store i32 0, ptr %4, align 4
  store i32 1, ptr %10, align 4
  br label %129

24:                                               ; preds = %19
  %25 = load i8, ptr %8, align 1
  %26 = zext i8 %25 to i32
  %27 = icmp ne i32 %26, 255
  br i1 %27, label %28, label %29

28:                                               ; preds = %24
  store i32 -1, ptr %4, align 4
  store i32 1, ptr %10, align 4
  br label %129

29:                                               ; preds = %24
  %30 = call ptr @slurm_xcalloc(i64 noundef 1, i64 noundef 18, i1 noundef zeroext true, i1 noundef zeroext false, ptr noundef @.str.2, i32 noundef 11349, ptr noundef @__func__.unpack_multi_core_data)
  store ptr %30, ptr %9, align 8
  %31 = load i16, ptr %7, align 2
  %32 = zext i16 %31 to i32
  %33 = icmp sge i32 %32, 10240
  br i1 %33, label %34, label %125

34:                                               ; preds = %29
  br label %35

35:                                               ; preds = %34
  %36 = load ptr, ptr %9, align 8
  %37 = getelementptr inbounds nuw %struct.multi_core_data, ptr %36, i32 0, i32 0
  %38 = load ptr, ptr %6, align 8
  %39 = call i32 @unpack16(ptr noundef %37, ptr noundef %38)
  %40 = icmp ne i32 %39, 0
  br i1 %40, label %41, label %42

41:                                               ; preds = %35
  br label %128

42:                                               ; preds = %35
  br label %43

43:                                               ; preds = %42
  br label %44

44:                                               ; preds = %43
  br label %45

45:                                               ; preds = %44
  %46 = load ptr, ptr %9, align 8
  %47 = getelementptr inbounds nuw %struct.multi_core_data, ptr %46, i32 0, i32 1
  %48 = load ptr, ptr %6, align 8
  %49 = call i32 @unpack16(ptr noundef %47, ptr noundef %48)
  %50 = icmp ne i32 %49, 0
  br i1 %50, label %51, label %52

51:                                               ; preds = %45
  br label %128

52:                                               ; preds = %45
  br label %53

53:                                               ; preds = %52
  br label %54

54:                                               ; preds = %53
  br label %55

55:                                               ; preds = %54
  %56 = load ptr, ptr %9, align 8
  %57 = getelementptr inbounds nuw %struct.multi_core_data, ptr %56, i32 0, i32 2
  %58 = load ptr, ptr %6, align 8
  %59 = call i32 @unpack16(ptr noundef %57, ptr noundef %58)
  %60 = icmp ne i32 %59, 0
  br i1 %60, label %61, label %62

61:                                               ; preds = %55
  br label %128

62:                                               ; preds = %55
  br label %63

63:                                               ; preds = %62
  br label %64

64:                                               ; preds = %63
  br label %65

65:                                               ; preds = %64
  %66 = load ptr, ptr %9, align 8
  %67 = getelementptr inbounds nuw %struct.multi_core_data, ptr %66, i32 0, i32 3
  %68 = load ptr, ptr %6, align 8
  %69 = call i32 @unpack16(ptr noundef %67, ptr noundef %68)
  %70 = icmp ne i32 %69, 0
  br i1 %70, label %71, label %72

71:                                               ; preds = %65
  br label %128

72:                                               ; preds = %65
  br label %73

73:                                               ; preds = %72
  br label %74

74:                                               ; preds = %73
  br label %75

75:                                               ; preds = %74
  %76 = load ptr, ptr %9, align 8
  %77 = getelementptr inbounds nuw %struct.multi_core_data, ptr %76, i32 0, i32 4
  %78 = load ptr, ptr %6, align 8
  %79 = call i32 @unpack16(ptr noundef %77, ptr noundef %78)
  %80 = icmp ne i32 %79, 0
  br i1 %80, label %81, label %82

81:                                               ; preds = %75
  br label %128

82:                                               ; preds = %75
  br label %83

83:                                               ; preds = %82
  br label %84

84:                                               ; preds = %83
  br label %85

85:                                               ; preds = %84
  %86 = load ptr, ptr %9, align 8
  %87 = getelementptr inbounds nuw %struct.multi_core_data, ptr %86, i32 0, i32 5
  %88 = load ptr, ptr %6, align 8
  %89 = call i32 @unpack16(ptr noundef %87, ptr noundef %88)
  %90 = icmp ne i32 %89, 0
  br i1 %90, label %91, label %92

91:                                               ; preds = %85
  br label %128

92:                                               ; preds = %85
  br label %93

93:                                               ; preds = %92
  br label %94

94:                                               ; preds = %93
  br label %95

95:                                               ; preds = %94
  %96 = load ptr, ptr %9, align 8
  %97 = getelementptr inbounds nuw %struct.multi_core_data, ptr %96, i32 0, i32 6
  %98 = load ptr, ptr %6, align 8
  %99 = call i32 @unpack16(ptr noundef %97, ptr noundef %98)
  %100 = icmp ne i32 %99, 0
  br i1 %100, label %101, label %102

101:                                              ; preds = %95
  br label %128

102:                                              ; preds = %95
  br label %103

103:                                              ; preds = %102
  br label %104

104:                                              ; preds = %103
  br label %105

105:                                              ; preds = %104
  %106 = load ptr, ptr %9, align 8
  %107 = getelementptr inbounds nuw %struct.multi_core_data, ptr %106, i32 0, i32 7
  %108 = load ptr, ptr %6, align 8
  %109 = call i32 @unpack16(ptr noundef %107, ptr noundef %108)
  %110 = icmp ne i32 %109, 0
  br i1 %110, label %111, label %112

111:                                              ; preds = %105
  br label %128

112:                                              ; preds = %105
  br label %113

113:                                              ; preds = %112
  br label %114

114:                                              ; preds = %113
  br label %115

115:                                              ; preds = %114
  %116 = load ptr, ptr %9, align 8
  %117 = getelementptr inbounds nuw %struct.multi_core_data, ptr %116, i32 0, i32 8
  %118 = load ptr, ptr %6, align 8
  %119 = call i32 @unpack16(ptr noundef %117, ptr noundef %118)
  %120 = icmp ne i32 %119, 0
  br i1 %120, label %121, label %122

121:                                              ; preds = %115
  br label %128

122:                                              ; preds = %115
  br label %123

123:                                              ; preds = %122
  br label %124

124:                                              ; preds = %123
  br label %125

125:                                              ; preds = %124, %29
  %126 = load ptr, ptr %9, align 8
  %127 = load ptr, ptr %5, align 8
  store ptr %126, ptr %127, align 8
  store i32 0, ptr %4, align 4
  store i32 1, ptr %10, align 4
  br label %129

128:                                              ; preds = %121, %111, %101, %91, %81, %71, %61, %51, %41, %16
  call void @slurm_xfree(ptr noundef %9)
  store i32 -1, ptr %4, align 4
  store i32 1, ptr %10, align 4
  br label %129

129:                                              ; preds = %128, %125, %28, %23
  call void @llvm.lifetime.end.p0(i64 8, ptr %9) #6
  call void @llvm.lifetime.end.p0(i64 1, ptr %8) #6
  %130 = load i32, ptr %4, align 4
  ret i32 %130
}