; Function Attrs: nounwind uwtable
define dso_local range(i32 -1, 1) i32 @unpack_multi_core_data(ptr noundef writeonly captures(none) initializes((0, 8)) %0, ptr noundef %1, i16 noundef zeroext %2) local_unnamed_addr #0 {
  %4 = alloca i8, align 1
  %5 = alloca ptr, align 8
  call void @llvm.lifetime.start.p0(i64 1, ptr nonnull %4) #7
  call void @llvm.lifetime.start.p0(i64 8, ptr nonnull %5) #7
  store ptr null, ptr %5, align 8
  store ptr null, ptr %0, align 8
  %6 = call i32 @unpack8(ptr noundef nonnull %4, ptr noundef %1) #7
  %.not = icmp eq i32 %6, 0
  br i1 %.not, label %7, label %40

7:                                                ; preds = %3
  %8 = load i8, ptr %4, align 1
  switch i8 %8, label %9 [
    i8 0, label %41
    i8 -1, label %10
  ]

9:                                                ; preds = %7
  br label %41

10:                                               ; preds = %7
  %11 = call ptr @slurm_xcalloc(i64 noundef 1, i64 noundef 18, i1 noundef zeroext true, i1 noundef zeroext false, ptr noundef nonnull @.str.2, i32 noundef 11349, ptr noundef nonnull @__func__.unpack_multi_core_data) #7
  store ptr %11, ptr %5, align 8
  %12 = icmp ugt i16 %2, 10239
  br i1 %12, label %13, label %39

13:                                               ; preds = %10
  %14 = call i32 @unpack16(ptr noundef %11, ptr noundef %1) #7
  %.not15 = icmp eq i32 %14, 0
  br i1 %.not15, label %15, label %40

15:                                               ; preds = %13
  %16 = getelementptr inbounds nuw i8, ptr %11, i64 2
  %17 = call i32 @unpack16(ptr noundef nonnull %16, ptr noundef %1) #7
  %.not16 = icmp eq i32 %17, 0
  br i1 %.not16, label %18, label %40

18:                                               ; preds = %15
  %19 = getelementptr inbounds nuw i8, ptr %11, i64 4
  %20 = call i32 @unpack16(ptr noundef nonnull %19, ptr noundef %1) #7
  %.not17 = icmp eq i32 %20, 0
  br i1 %.not17, label %21, label %40

21:                                               ; preds = %18
  %22 = getelementptr inbounds nuw i8, ptr %11, i64 6
  %23 = call i32 @unpack16(ptr noundef nonnull %22, ptr noundef %1) #7
  %.not18 = icmp eq i32 %23, 0
  br i1 %.not18, label %24, label %40

24:                                               ; preds = %21
  %25 = getelementptr inbounds nuw i8, ptr %11, i64 8
  %26 = call i32 @unpack16(ptr noundef nonnull %25, ptr noundef %1) #7
  %.not19 = icmp eq i32 %26, 0
  br i1 %.not19, label %27, label %40

27:                                               ; preds = %24
  %28 = getelementptr inbounds nuw i8, ptr %11, i64 10
  %29 = call i32 @unpack16(ptr noundef nonnull %28, ptr noundef %1) #7
  %.not20 = icmp eq i32 %29, 0
  br i1 %.not20, label %30, label %40

30:                                               ; preds = %27
  %31 = getelementptr inbounds nuw i8, ptr %11, i64 12
  %32 = call i32 @unpack16(ptr noundef nonnull %31, ptr noundef %1) #7
  %.not21 = icmp eq i32 %32, 0
  br i1 %.not21, label %33, label %40

33:                                               ; preds = %30
  %34 = getelementptr inbounds nuw i8, ptr %11, i64 14
  %35 = call i32 @unpack16(ptr noundef nonnull %34, ptr noundef %1) #7
  %.not22 = icmp eq i32 %35, 0
  br i1 %.not22, label %36, label %40

36:                                               ; preds = %33
  %37 = getelementptr inbounds nuw i8, ptr %11, i64 16
  %38 = call i32 @unpack16(ptr noundef nonnull %37, ptr noundef %1) #7
  %.not23 = icmp eq i32 %38, 0
  br i1 %.not23, label %39, label %40

39:                                               ; preds = %36, %10
  store ptr %11, ptr %0, align 8
  br label %41

40:                                               ; preds = %36, %33, %30, %27, %24, %21, %18, %15, %13, %3
  call void @slurm_xfree(ptr noundef nonnull %5) #7
  br label %41

41:                                               ; preds = %7, %40, %39, %9
  %.0 = phi i32 [ -1, %40 ], [ -1, %9 ], [ 0, %39 ], [ 0, %7 ]
  call void @llvm.lifetime.end.p0(i64 8, ptr nonnull %5) #7
  call void @llvm.lifetime.end.p0(i64 1, ptr nonnull %4) #7
  ret i32 %.0
}